target datalayout = "e-m:e-p270:32:32-p271:32:32-p272:64:64-i64:64-i128:128-f80:128-n8:16:32:64-S128"
target triple = "x86_64-pc-linux-gnu"

%struct.expert_field = type { i32, i32 }

@ei_lisp_unexpected_field = internal global %struct.expert_field zeroinitializer, align 4
@hf_lisp_lcaf_natt_rloc = internal global i32 0, align 4
@hf_lisp_lcaf_natt_rloc_afi = internal global i32 0, align 4
@hf_lisp_lcaf_natt_rloc_ipv4 = internal global i32 0, align 4
@hf_lisp_lcaf_natt_rloc_ipv6 = internal global i32 0, align 4
@ett_lisp_lcaf_natt_rloc = internal global i32 0, align 4
@.str.406 = private unnamed_addr constant [46 x i8] c"Unexpected NAT-T RLOC AFI (%d), cannot decode\00", align 1

; Function Attrs: null_pointer_is_valid sspstrong uwtable
define internal i32 @dissect_lcaf_natt_rloc(ptr noundef %0, ptr noundef %1, ptr noundef %2, i32 noundef %3, ptr noundef %4, i32 noundef %5) #0 {
  %7 = alloca ptr, align 8
  %8 = alloca ptr, align 8
  %9 = alloca ptr, align 8
  %10 = alloca i32, align 4
  %11 = alloca ptr, align 8
  %12 = alloca i32, align 4
  %13 = alloca i16, align 2
  %14 = alloca i16, align 2
  %15 = alloca ptr, align 8
  %16 = alloca ptr, align 8
  %17 = alloca ptr, align 8
  store ptr %0, ptr %7, align 8
  store ptr %1, ptr %8, align 8
  store ptr %2, ptr %9, align 8
  store i32 %3, ptr %10, align 4
  store ptr %4, ptr %11, align 8
  store i32 %5, ptr %12, align 4
  call void @llvm.lifetime.start.p0(i64 2, ptr %13) #3
  store i16 0, ptr %13, align 2
  call void @llvm.lifetime.start.p0(i64 2, ptr %14) #3
  call void @llvm.lifetime.start.p0(i64 8, ptr %15) #3
  call void @llvm.lifetime.start.p0(i64 8, ptr %16) #3
  call void @llvm.lifetime.start.p0(i64 8, ptr %17) #3
  %18 = load ptr, ptr %9, align 8
  %19 = load i32, ptr @hf_lisp_lcaf_natt_rloc, align 4
  %20 = load ptr, ptr %7, align 8
  %21 = load i32, ptr %10, align 4
  %22 = call ptr @proto_tree_add_item(ptr noundef %18, i32 noundef %19, ptr noundef %20, i32 noundef %21, i32 noundef 2, i32 noundef 0)
  store ptr %22, ptr %16, align 8
  %23 = load ptr, ptr %16, align 8
  %24 = load i32, ptr @ett_lisp_lcaf_natt_rloc, align 4
  %25 = call ptr @proto_item_add_subtree(ptr noundef %23, i32 noundef %24)
  store ptr %25, ptr %17, align 8
  %26 = load ptr, ptr %17, align 8
  %27 = load i32, ptr @hf_lisp_lcaf_natt_rloc_afi, align 4
  %28 = load ptr, ptr %7, align 8
  %29 = load i32, ptr %10, align 4
  %30 = call ptr @proto_tree_add_item(ptr noundef %26, i32 noundef %27, ptr noundef %28, i32 noundef %29, i32 noundef 2, i32 noundef 0)
  %31 = load ptr, ptr %7, align 8
  %32 = load i32, ptr %10, align 4
  %33 = call zeroext i16 @tvb_get_ntohs(ptr noundef %31, i32 noundef %32)
  store i16 %33, ptr %14, align 2
  %34 = load i32, ptr %10, align 4
  %35 = add i32 %34, 2
  store i32 %35, ptr %10, align 4
  %36 = load ptr, ptr %7, align 8
  %37 = load ptr, ptr %8, align 8
  %38 = load i32, ptr %10, align 4
  %39 = load i16, ptr %14, align 2
  %40 = call ptr @get_addr_str(ptr noundef %36, ptr noundef %37, i32 noundef %38, i16 noundef zeroext %39, ptr noundef %13)
  store ptr %40, ptr %15, align 8
  %41 = load i16, ptr %14, align 2
  %42 = zext i16 %41 to i32
  switch i32 %42, label %61 [
    i32 0, label %67
    i32 1, label %43
    i32 2, label %49
    i32 16387, label %55
  ]

43:                                               ; preds = %6
  %44 = load ptr, ptr %17, align 8
  %45 = load i32, ptr @hf_lisp_lcaf_natt_rloc_ipv4, align 4
  %46 = load ptr, ptr %7, align 8
  %47 = load i32, ptr %10, align 4
  %48 = call ptr @proto_tree_add_item(ptr noundef %44, i32 noundef %45, ptr noundef %46, i32 noundef %47, i32 noundef 4, i32 noundef 0)
  br label %67

49:                                               ; preds = %6
  %50 = load ptr, ptr %17, align 8
  %51 = load i32, ptr @hf_lisp_lcaf_natt_rloc_ipv6, align 4
  %52 = load ptr, ptr %7, align 8
  %53 = load i32, ptr %10, align 4
  %54 = call ptr @proto_tree_add_item(ptr noundef %50, i32 noundef %51, ptr noundef %52, i32 noundef %53, i32 noundef 16, i32 noundef 0)
  br label %67

55:                                               ; preds = %6
  %56 = load ptr, ptr %7, align 8
  %57 = load ptr, ptr %8, align 8
  %58 = load ptr, ptr %17, align 8
  %59 = load i32, ptr %10, align 4
  %60 = call i32 @dissect_lcaf(ptr noundef %56, ptr noundef %57, ptr noundef %58, i32 noundef %59, ptr noundef null)
  br label %67

61:                                               ; preds = %6
  %62 = load ptr, ptr %8, align 8
  %63 = load ptr, ptr %17, align 8
  %64 = load i16, ptr %14, align 2
  %65 = zext i16 %64 to i32
  %66 = call ptr (ptr, ptr, ptr, ptr, ...) @expert_add_info_format(ptr noundef %62, ptr noundef %63, ptr noundef @ei_lisp_unexpected_field, ptr noundef @.str.406, i32 noundef %65)
  br label %67

67:                                               ; preds = %61, %55, %49, %43, %6
  %68 = load i32, ptr %12, align 4
  %69 = icmp ne i32 %68, 0
  br i1 %69, label %70, label %75

70:                                               ; preds = %67
  %71 = load ptr, ptr %16, align 8
  %72 = load ptr, ptr %11, align 8
  %73 = load i32, ptr %12, align 4
  %74 = load ptr, ptr %15, align 8
  call void (ptr, ptr, ...) @proto_item_append_text(ptr noundef %71, ptr noundef %72, i32 noundef %73, ptr noundef %74)
  br label %79

75:                                               ; preds = %67
  %76 = load ptr, ptr %16, align 8
  %77 = load ptr, ptr %11, align 8
  %78 = load ptr, ptr %15, align 8
  call void (ptr, ptr, ...) @proto_item_append_text(ptr noundef %76, ptr noundef %77, ptr noundef %78)
  br label %79

79:                                               ; preds = %75, %70
  %80 = load ptr, ptr %16, align 8
  %81 = load i16, ptr %13, align 2
  %82 = zext i16 %81 to i32
  %83 = add i32 2, %82
  call void @proto_item_set_len(ptr noundef %80, i32 noundef %83)
  %84 = load i16, ptr %13, align 2
  %85 = zext i16 %84 to i32
  %86 = add i32 %85, 2
  call void @llvm.lifetime.end.p0(i64 8, ptr %17) #3
  call void @llvm.lifetime.end.p0(i64 8, ptr %16) #3
  call void @llvm.lifetime.end.p0(i64 8, ptr %15) #3
  call void @llvm.lifetime.end.p0(i64 2, ptr %14) #3
  call void @llvm.lifetime.end.p0(i64 2, ptr %13) #3
  ret i32 %86
}