; Function Attrs: null_pointer_is_valid sspstrong uwtable
define internal fastcc range(i32 2, 65538) i32 @dissect_lcaf_natt_rloc(ptr noundef %0, ptr noundef %1, ptr noundef %2, i32 noundef %3, ptr noundef %4, i32 noundef %5) unnamed_addr #0 {
  %7 = alloca i16, align 2
  call void @llvm.lifetime.start.p0(i64 2, ptr nonnull %7) #3
  store i16 0, ptr %7, align 2
  %8 = load i32, ptr @hf_lisp_lcaf_natt_rloc, align 4
  %9 = tail call ptr @proto_tree_add_item(ptr noundef %2, i32 noundef %8, ptr noundef %0, i32 noundef %3, i32 noundef 2, i32 noundef 0)
  %10 = load i32, ptr @ett_lisp_lcaf_natt_rloc, align 4
  %11 = tail call ptr @proto_item_add_subtree(ptr noundef %9, i32 noundef %10)
  %12 = load i32, ptr @hf_lisp_lcaf_natt_rloc_afi, align 4
  %13 = tail call ptr @proto_tree_add_item(ptr noundef %11, i32 noundef %12, ptr noundef %0, i32 noundef %3, i32 noundef 2, i32 noundef 0)
  %14 = tail call zeroext i16 @tvb_get_ntohs(ptr noundef %0, i32 noundef %3)
  %15 = add i32 %3, 2
  %16 = call ptr @get_addr_str(ptr noundef %0, ptr noundef %1, i32 noundef %15, i16 noundef zeroext %14, ptr noundef nonnull %7)
  switch i16 %14, label %25 [
    i16 0, label %28
    i16 1, label %17
    i16 2, label %20
    i16 16387, label %23
  ]

17:                                               ; preds = %6
  %18 = load i32, ptr @hf_lisp_lcaf_natt_rloc_ipv4, align 4
  %19 = call ptr @proto_tree_add_item(ptr noundef %11, i32 noundef %18, ptr noundef %0, i32 noundef %15, i32 noundef 4, i32 noundef 0)
  br label %28

20:                                               ; preds = %6
  %21 = load i32, ptr @hf_lisp_lcaf_natt_rloc_ipv6, align 4
  %22 = call ptr @proto_tree_add_item(ptr noundef %11, i32 noundef %21, ptr noundef %0, i32 noundef %15, i32 noundef 16, i32 noundef 0)
  br label %28

23:                                               ; preds = %6
  %24 = call i32 @dissect_lcaf(ptr noundef %0, ptr noundef %1, ptr noundef %11, i32 noundef %15, ptr noundef null)
  br label %28

25:                                               ; preds = %6
  %26 = zext i16 %14 to i32
  %27 = call ptr (ptr, ptr, ptr, ptr, ...) @expert_add_info_format(ptr noundef %1, ptr noundef %11, ptr noundef nonnull @ei_lisp_unexpected_field, ptr noundef nonnull @.str.406, i32 noundef %26)
  br label %28

28:                                               ; preds = %25, %23, %20, %17, %6
  %.not = icmp eq i32 %5, 0
  br i1 %.not, label %30, label %29

29:                                               ; preds = %28
  call void (ptr, ptr, ...) @proto_item_append_text(ptr noundef %9, ptr noundef %4, i32 noundef %5, ptr noundef %16)
  br label %31

30:                                               ; preds = %28
  call void (ptr, ptr, ...) @proto_item_append_text(ptr noundef %9, ptr noundef %4, ptr noundef %16)
  br label %31

31:                                               ; preds = %30, %29
  %32 = load i16, ptr %7, align 2
  %33 = zext i16 %32 to i32
  %34 = add nuw nsw i32 %33, 2
  call void @proto_item_set_len(ptr noundef %9, i32 noundef %34)
  %35 = load i16, ptr %7, align 2
  %36 = zext i16 %35 to i32
  %37 = add nuw nsw i32 %36, 2
  call void @llvm.lifetime.end.p0(i64 2, ptr nonnull %7) #3
  ret i32 %37
}